(dp1
S'King Arthor'
p2
(dp3
S'City'
p4
S'Silly Place'
p5
sS'Name'
p6
g2
sS'Street Address'
p7
S'Camalot'
p8
sS'Phone Number'
p9
S'of Camalot'
p10
sS'Zipcode'
p11
S'Britan'
p12
sS'State'
p13
S'England'
p14
sS'Email'
p15
S'NA'
p16
ssS'Monty Python'
p17
(dp18
g4
S'London'
p19
sg6
g17
sg7
S'1 Ministry of Silly Walks'
p20
sg9
S'3333333333'
p21
sg11
S'UK'
p22
sg13
S'England'
p23
sg15
S'spam@spam.eggs'
p24
ssS'Hannah Banana'
p25
(dp26
S'City'
p27
S'Portland'
p28
sS'Name'
p29
g25
sS'Street Address'
p30
S'456 S Fruit St.'
p31
sS'Phone Number'
p32
S'456-456-456'
p33
sS'Zipcode'
p34
S'94568'
p35
sS'State'
p36
S'OR'
p37
sS'Email'
p38
S''
ssS'Queen Elsa'
p39
(dp40
S'City'
p41
S'North Mountain'
p42
sS'Name'
p43
g39
sS'Street Address'
p44
S'Ice Castle'
p45
sS'Phone Number'
p46
S'NA'
p47
sS'Zipcode'
p48
S'A113'
p49
sS'State'
p50
S'Vaguely Scandanavian'
p51
sS'Email'
p52
S'NA'
p53
ss.